target datalayout = "e-m:e-p270:32:32-p271:32:32-p272:64:64-i64:64-i128:128-f80:128-n8:16:32:64-S128"
target triple = "x86_64-unknown-linux-gnu"

%"class.Imath_3_2::Vec3" = type { float, float, float }
%"class.Imf_3_2::RgbaOutputFile::ToYca" = type { %"class.std::mutex", ptr, i8, i8, i8, i32, i32, i32, i32, i32, i32, %"class.Imath_3_2::Vec3", ptr, [27 x ptr], ptr, ptr, i64, i64, i32, i32 }
%"class.std::mutex" = type { %"class.std::__mutex_base" }
%"class.std::__mutex_base" = type { %union.pthread_mutex_t }
%union.pthread_mutex_t = type { %struct.__pthread_mutex_s }
%struct.__pthread_mutex_s = type { i32, i32, i32, i32, i32, i16, i16, %struct.__pthread_internal_list }
%struct.__pthread_internal_list = type { ptr, ptr }
%"struct.Imf_3_2::Rgba" = type { %"class.Imath_3_2::half", %"class.Imath_3_2::half", %"class.Imath_3_2::half", %"class.Imath_3_2::half" }
%"class.Imath_3_2::half" = type { i16 }
%"class.Imf_3_2::FrameBuffer" = type { %"class.std::map.0" }
%"class.std::map.0" = type { %"class.std::_Rb_tree.1" }
%"class.std::_Rb_tree.1" = type { %"struct.std::_Rb_tree<Imf_3_2::Name, std::pair<const Imf_3_2::Name, Imf_3_2::Slice>, std::_Select1st<std::pair<const Imf_3_2::Name, Imf_3_2::Slice>>, std::less<Imf_3_2::Name>>::_Rb_tree_impl" }
%"struct.std::_Rb_tree<Imf_3_2::Name, std::pair<const Imf_3_2::Name, Imf_3_2::Slice>, std::_Select1st<std::pair<const Imf_3_2::Name, Imf_3_2::Slice>>, std::less<Imf_3_2::Name>>::_Rb_tree_impl" = type { %"struct.std::_Rb_tree_key_compare", %"struct.std::_Rb_tree_header" }
%"struct.std::_Rb_tree_key_compare" = type { %"struct.std::less" }
%"struct.std::less" = type { i8 }
%"struct.std::_Rb_tree_header" = type { %"struct.std::_Rb_tree_node_base", i64 }
%"struct.std::_Rb_tree_node_base" = type { i32, ptr, ptr, ptr }
%"struct.Imf_3_2::Slice" = type <{ i32, [4 x i8], ptr, i64, i64, i32, i32, double, i8, i8, [6 x i8] }>

@.str = private unnamed_addr constant [2 x i8] c"Y\00", align 1
@.str.1 = private unnamed_addr constant [3 x i8] c"RY\00", align 1
@.str.2 = private unnamed_addr constant [3 x i8] c"BY\00", align 1
@.str.3 = private unnamed_addr constant [2 x i8] c"A\00", align 1

; Function Attrs: mustprogress nounwind uwtable
define linkonce_odr hidden void @_ZNSt15_Rb_tree_header8_M_resetEv(ptr noundef nonnull align 8 dereferenceable(40) %this) #5 comdat align 2 {
entry:
  %this.addr = alloca ptr, align 8
  store ptr %this, ptr %this.addr, align 8
  %this1 = load ptr, ptr %this.addr, align 8
  %_M_header = getelementptr inbounds %"struct.std::_Rb_tree_header", ptr %this1, i32 0, i32 0
  %_M_parent = getelementptr inbounds %"struct.std::_Rb_tree_node_base", ptr %_M_header, i32 0, i32 1
  store ptr null, ptr %_M_parent, align 8
  %_M_header2 = getelementptr inbounds %"struct.std::_Rb_tree_header", ptr %this1, i32 0, i32 0
  %_M_header3 = getelementptr inbounds %"struct.std::_Rb_tree_header", ptr %this1, i32 0, i32 0
  %_M_left = getelementptr inbounds %"struct.std::_Rb_tree_node_base", ptr %_M_header3, i32 0, i32 2
  store ptr %_M_header2, ptr %_M_left, align 8
  %_M_header4 = getelementptr inbounds %"struct.std::_Rb_tree_header", ptr %this1, i32 0, i32 0
  %_M_header5 = getelementptr inbounds %"struct.std::_Rb_tree_header", ptr %this1, i32 0, i32 0
  %_M_right = getelementptr inbounds %"struct.std::_Rb_tree_node_base", ptr %_M_header5, i32 0, i32 3
  store ptr %_M_header4, ptr %_M_right, align 8
  %_M_node_count = getelementptr inbounds %"struct.std::_Rb_tree_header", ptr %this1, i32 0, i32 1
  store i64 0, ptr %_M_node_count, align 8
  ret void
}

; Function Attrs: mustprogress nounwind uwtable
define linkonce_odr hidden void @_ZNSt15__new_allocatorISt13_Rb_tree_nodeISt4pairIKN7Imf_3_24NameENS2_5SliceEEEEC2Ev(ptr noundef nonnull align 1 dereferenceable(1) %this) unnamed_addr #5 comdat align 2 {
entry:
  %this.addr = alloca ptr, align 8
  store ptr %this, ptr %this.addr, align 8
  ret void
}

; Function Attrs: mustprogress nounwind uwtable
define linkonce_odr hidden void @_ZNSt15_Rb_tree_headerC2Ev(ptr noundef nonnull align 8 dereferenceable(40) %this) unnamed_addr #5 comdat align 2 personality ptr @__gxx_personality_v0 {
entry:
  %this.addr = alloca ptr, align 8
  store ptr %this, ptr %this.addr, align 8
  %this1 = load ptr, ptr %this.addr, align 8
  %_M_header2 = getelementptr inbounds %"struct.std::_Rb_tree_header", ptr %this1, i32 0, i32 0
  %_M_color = getelementptr inbounds %"struct.std::_Rb_tree_node_base", ptr %_M_header2, i32 0, i32 0
  store i32 0, ptr %_M_color, align 8
  invoke void @_ZNSt15_Rb_tree_header8_M_resetEv(ptr noundef nonnull align 8 dereferenceable(40) %this1)
          to label %invoke.cont unwind label %terminate.lpad

invoke.cont:                                      ; preds = %entry
  ret void

terminate.lpad:                                   ; preds = %entry
  %0 = landingpad { ptr, i32 }
          catch ptr null
  %1 = extractvalue { ptr, i32 } %0, 0
  call void @__clang_call_terminate(ptr %1) #16
  unreachable
}

; Function Attrs: mustprogress nounwind uwtable
define linkonce_odr hidden void @_ZNSt20_Rb_tree_key_compareISt4lessIN7Imf_3_24NameEEEC2Ev(ptr noundef nonnull align 1 dereferenceable(1) %this) unnamed_addr #5 comdat align 2 {
entry:
  %this.addr = alloca ptr, align 8
  store ptr %this, ptr %this.addr, align 8
  ret void
}

; Function Attrs: mustprogress nounwind uwtable
define linkonce_odr hidden void @_ZNSaISt13_Rb_tree_nodeISt4pairIKN7Imf_3_24NameENS1_5SliceEEEEC2Ev(ptr noundef nonnull align 1 dereferenceable(1) %this) unnamed_addr #5 comdat align 2 {
entry:
  %this.addr = alloca ptr, align 8
  store ptr %this, ptr %this.addr, align 8
  %this1 = load ptr, ptr %this.addr, align 8
  call void @_ZNSt15__new_allocatorISt13_Rb_tree_nodeISt4pairIKN7Imf_3_24NameENS2_5SliceEEEEC2Ev(ptr noundef nonnull align 1 dereferenceable(1) %this1) #3
  ret void
}

; Function Attrs: mustprogress nounwind uwtable
define linkonce_odr hidden void @_ZNSt8_Rb_treeIN7Imf_3_24NameESt4pairIKS1_NS0_5SliceEESt10_Select1stIS5_ESt4lessIS1_ESaIS5_EE13_Rb_tree_implIS9_Lb1EEC2Ev(ptr noundef nonnull align 8 dereferenceable(48) %this) unnamed_addr #5 comdat align 2 {
entry:
  %this.addr = alloca ptr, align 8
  store ptr %this, ptr %this.addr, align 8
  %this1 = load ptr, ptr %this.addr, align 8
  call void @_ZNSaISt13_Rb_tree_nodeISt4pairIKN7Imf_3_24NameENS1_5SliceEEEEC2Ev(ptr noundef nonnull align 1 dereferenceable(1) %this1) #3
  call void @_ZNSt20_Rb_tree_key_compareISt4lessIN7Imf_3_24NameEEEC2Ev(ptr noundef nonnull align 1 dereferenceable(1) %this1) #3
  %0 = getelementptr inbounds i8, ptr %this1, i64 8
  call void @_ZNSt15_Rb_tree_headerC2Ev(ptr noundef nonnull align 8 dereferenceable(40) %0) #3
  ret void
}

; Function Attrs: mustprogress nounwind uwtable
define linkonce_odr hidden void @_ZNSt8_Rb_treeIN7Imf_3_24NameESt4pairIKS1_NS0_5SliceEESt10_Select1stIS5_ESt4lessIS1_ESaIS5_EEC2Ev(ptr noundef nonnull align 8 dereferenceable(48) %this) unnamed_addr #5 comdat align 2 {
entry:
  %this.addr = alloca ptr, align 8
  store ptr %this, ptr %this.addr, align 8
  %this1 = load ptr, ptr %this.addr, align 8
  %_M_impl = getelementptr inbounds %"class.std::_Rb_tree.1", ptr %this1, i32 0, i32 0
  call void @_ZNSt8_Rb_treeIN7Imf_3_24NameESt4pairIKS1_NS0_5SliceEESt10_Select1stIS5_ESt4lessIS1_ESaIS5_EE13_Rb_tree_implIS9_Lb1EEC2Ev(ptr noundef nonnull align 8 dereferenceable(48) %_M_impl) #3
  ret void
}

; Function Attrs: mustprogress nounwind uwtable
define linkonce_odr hidden void @_ZNSt3mapIN7Imf_3_24NameENS0_5SliceESt4lessIS1_ESaISt4pairIKS1_S2_EEEC2Ev(ptr noundef nonnull align 8 dereferenceable(48) %this) unnamed_addr #5 comdat align 2 {
entry:
  %this.addr = alloca ptr, align 8
  store ptr %this, ptr %this.addr, align 8
  %this1 = load ptr, ptr %this.addr, align 8
  %_M_t = getelementptr inbounds %"class.std::map.0", ptr %this1, i32 0, i32 0
  call void @_ZNSt8_Rb_treeIN7Imf_3_24NameESt4pairIKS1_NS0_5SliceEESt10_Select1stIS5_ESt4lessIS1_ESaIS5_EEC2Ev(ptr noundef nonnull align 8 dereferenceable(48) %_M_t) #3
  ret void
}

; Function Attrs: mustprogress nounwind uwtable
define linkonce_odr hidden void @_ZN7Imf_3_211FrameBufferC2Ev(ptr noundef nonnull align 8 dereferenceable(48) %this) unnamed_addr #5 comdat align 2 {
entry:
  %this.addr = alloca ptr, align 8
  store ptr %this, ptr %this.addr, align 8
  %this1 = load ptr, ptr %this.addr, align 8
  %_map = getelementptr inbounds %"class.Imf_3_2::FrameBuffer", ptr %this1, i32 0, i32 0
  call void @_ZNSt3mapIN7Imf_3_24NameENS0_5SliceESt4lessIS1_ESaISt4pairIKS1_S2_EEEC2Ev(ptr noundef nonnull align 8 dereferenceable(48) %_map) #3
  ret void
}

; Function Attrs: mustprogress uwtable
define hidden void @_ZN7Imf_3_214RgbaOutputFile5ToYca14setFrameBufferEPKNS_4RgbaEmm(ptr noundef nonnull align 8 dereferenceable(352) %this, ptr noundef %base, i64 noundef %xStride, i64 noundef %yStride) #4 align 2 personality ptr @__gxx_personality_v0 {
entry:
  %this.addr = alloca ptr, align 8
  %base.addr = alloca ptr, align 8
  %xStride.addr = alloca i64, align 8
  %yStride.addr = alloca i64, align 8
  %fb = alloca %"class.Imf_3_2::FrameBuffer", align 8
  %ref.tmp = alloca %"struct.Imf_3_2::Slice", align 8
  %exn.slot = alloca ptr, align 8
  %ehselector.slot = alloca i32, align 4
  %ref.tmp6 = alloca %"struct.Imf_3_2::Slice", align 8
  %ref.tmp14 = alloca %"struct.Imf_3_2::Slice", align 8
  %ref.tmp25 = alloca %"struct.Imf_3_2::Slice", align 8
  store ptr %this, ptr %this.addr, align 8
  store ptr %base, ptr %base.addr, align 8
  store i64 %xStride, ptr %xStride.addr, align 8
  store i64 %yStride, ptr %yStride.addr, align 8
  %this1 = load ptr, ptr %this.addr, align 8
  %_fbBase = getelementptr inbounds %"class.Imf_3_2::RgbaOutputFile::ToYca", ptr %this1, i32 0, i32 15
  %0 = load ptr, ptr %_fbBase, align 8
  %cmp = icmp eq ptr %0, null
  br i1 %cmp, label %if.then, label %if.end35

if.then:                                          ; preds = %entry
  call void @_ZN7Imf_3_211FrameBufferC2Ev(ptr noundef nonnull align 8 dereferenceable(48) %fb) #3
  %_writeY = getelementptr inbounds %"class.Imf_3_2::RgbaOutputFile::ToYca", ptr %this1, i32 0, i32 2
  %1 = load i8, ptr %_writeY, align 8
  %tobool = trunc i8 %1 to i1
  br i1 %tobool, label %if.then2, label %if.end

if.then2:                                         ; preds = %if.then
  %_tmpBuf = getelementptr inbounds %"class.Imf_3_2::RgbaOutputFile::ToYca", ptr %this1, i32 0, i32 14
  %2 = load ptr, ptr %_tmpBuf, align 8
  %_xMin = getelementptr inbounds %"class.Imf_3_2::RgbaOutputFile::ToYca", ptr %this1, i32 0, i32 5
  %3 = load i32, ptr %_xMin, align 4
  %sub = sub nsw i32 0, %3
  %idxprom = sext i32 %sub to i64
  %arrayidx = getelementptr inbounds %"struct.Imf_3_2::Rgba", ptr %2, i64 %idxprom
  %g = getelementptr inbounds %"struct.Imf_3_2::Rgba", ptr %arrayidx, i32 0, i32 1
  invoke void @_ZN7Imf_3_25SliceC1ENS_9PixelTypeEPcmmiidbb(ptr noundef nonnull align 8 dereferenceable(50) %ref.tmp, i32 noundef 1, ptr noundef %g, i64 noundef 8, i64 noundef 0, i32 noundef 1, i32 noundef 1, double noundef 0.000000e+00, i1 noundef zeroext false, i1 noundef zeroext false)
          to label %invoke.cont unwind label %lpad

invoke.cont:                                      ; preds = %if.then2
  invoke void @_ZN7Imf_3_211FrameBuffer6insertEPKcRKNS_5SliceE(ptr noundef nonnull align 8 dereferenceable(48) %fb, ptr noundef @.str, ptr noundef nonnull align 8 dereferenceable(50) %ref.tmp)
          to label %invoke.cont3 unwind label %lpad

invoke.cont3:                                     ; preds = %invoke.cont
  br label %if.end

lpad:                                             ; preds = %if.end33, %invoke.cont31, %if.then24, %invoke.cont20, %invoke.cont13, %invoke.cont12, %if.then5, %invoke.cont, %if.then2
  %4 = landingpad { ptr, i32 }
          cleanup
  %5 = extractvalue { ptr, i32 } %4, 0
  store ptr %5, ptr %exn.slot, align 8
  %6 = extractvalue { ptr, i32 } %4, 1
  store i32 %6, ptr %ehselector.slot, align 4
  call void @_ZN7Imf_3_211FrameBufferD2Ev(ptr noundef nonnull align 8 dereferenceable(48) %fb) #3
  br label %eh.resume

if.end:                                           ; preds = %invoke.cont3, %if.then
  %_writeC = getelementptr inbounds %"class.Imf_3_2::RgbaOutputFile::ToYca", ptr %this1, i32 0, i32 3
  %7 = load i8, ptr %_writeC, align 1
  %tobool4 = trunc i8 %7 to i1
  br i1 %tobool4, label %if.then5, label %if.end22

if.then5:                                         ; preds = %if.end
  %_tmpBuf7 = getelementptr inbounds %"class.Imf_3_2::RgbaOutputFile::ToYca", ptr %this1, i32 0, i32 14
  %8 = load ptr, ptr %_tmpBuf7, align 8
  %_xMin8 = getelementptr inbounds %"class.Imf_3_2::RgbaOutputFile::ToYca", ptr %this1, i32 0, i32 5
  %9 = load i32, ptr %_xMin8, align 4
  %sub9 = sub nsw i32 0, %9
  %idxprom10 = sext i32 %sub9 to i64
  %arrayidx11 = getelementptr inbounds %"struct.Imf_3_2::Rgba", ptr %8, i64 %idxprom10
  %r = getelementptr inbounds %"struct.Imf_3_2::Rgba", ptr %arrayidx11, i32 0, i32 0
  invoke void @_ZN7Imf_3_25SliceC1ENS_9PixelTypeEPcmmiidbb(ptr noundef nonnull align 8 dereferenceable(50) %ref.tmp6, i32 noundef 1, ptr noundef %r, i64 noundef 16, i64 noundef 0, i32 noundef 2, i32 noundef 2, double noundef 0.000000e+00, i1 noundef zeroext false, i1 noundef zeroext false)
          to label %invoke.cont12 unwind label %lpad

invoke.cont12:                                    ; preds = %if.then5
  invoke void @_ZN7Imf_3_211FrameBuffer6insertEPKcRKNS_5SliceE(ptr noundef nonnull align 8 dereferenceable(48) %fb, ptr noundef @.str.1, ptr noundef nonnull align 8 dereferenceable(50) %ref.tmp6)
          to label %invoke.cont13 unwind label %lpad

invoke.cont13:                                    ; preds = %invoke.cont12
  %_tmpBuf15 = getelementptr inbounds %"class.Imf_3_2::RgbaOutputFile::ToYca", ptr %this1, i32 0, i32 14
  %10 = load ptr, ptr %_tmpBuf15, align 8
  %_xMin16 = getelementptr inbounds %"class.Imf_3_2::RgbaOutputFile::ToYca", ptr %this1, i32 0, i32 5
  %11 = load i32, ptr %_xMin16, align 4
  %sub17 = sub nsw i32 0, %11
  %idxprom18 = sext i32 %sub17 to i64
  %arrayidx19 = getelementptr inbounds %"struct.Imf_3_2::Rgba", ptr %10, i64 %idxprom18
  %b = getelementptr inbounds %"struct.Imf_3_2::Rgba", ptr %arrayidx19, i32 0, i32 2
  invoke void @_ZN7Imf_3_25SliceC1ENS_9PixelTypeEPcmmiidbb(ptr noundef nonnull align 8 dereferenceable(50) %ref.tmp14, i32 noundef 1, ptr noundef %b, i64 noundef 16, i64 noundef 0, i32 noundef 2, i32 noundef 2, double noundef 0.000000e+00, i1 noundef zeroext false, i1 noundef zeroext false)
          to label %invoke.cont20 unwind label %lpad

invoke.cont20:                                    ; preds = %invoke.cont13
  invoke void @_ZN7Imf_3_211FrameBuffer6insertEPKcRKNS_5SliceE(ptr noundef nonnull align 8 dereferenceable(48) %fb, ptr noundef @.str.2, ptr noundef nonnull align 8 dereferenceable(50) %ref.tmp14)
          to label %invoke.cont21 unwind label %lpad

invoke.cont21:                                    ; preds = %invoke.cont20
  br label %if.end22

if.end22:                                         ; preds = %invoke.cont21, %if.end
  %_writeA = getelementptr inbounds %"class.Imf_3_2::RgbaOutputFile::ToYca", ptr %this1, i32 0, i32 4
  %12 = load i8, ptr %_writeA, align 2
  %tobool23 = trunc i8 %12 to i1
  br i1 %tobool23, label %if.then24, label %if.end33

if.then24:                                        ; preds = %if.end22
  %_tmpBuf26 = getelementptr inbounds %"class.Imf_3_2::RgbaOutputFile::ToYca", ptr %this1, i32 0, i32 14
  %13 = load ptr, ptr %_tmpBuf26, align 8
  %_xMin27 = getelementptr inbounds %"class.Imf_3_2::RgbaOutputFile::ToYca", ptr %this1, i32 0, i32 5
  %14 = load i32, ptr %_xMin27, align 4
  %sub28 = sub nsw i32 0, %14
  %idxprom29 = sext i32 %sub28 to i64
  %arrayidx30 = getelementptr inbounds %"struct.Imf_3_2::Rgba", ptr %13, i64 %idxprom29
  %a = getelementptr inbounds %"struct.Imf_3_2::Rgba", ptr %arrayidx30, i32 0, i32 3
  invoke void @_ZN7Imf_3_25SliceC1ENS_9PixelTypeEPcmmiidbb(ptr noundef nonnull align 8 dereferenceable(50) %ref.tmp25, i32 noundef 1, ptr noundef %a, i64 noundef 8, i64 noundef 0, i32 noundef 1, i32 noundef 1, double noundef 0.000000e+00, i1 noundef zeroext false, i1 noundef zeroext false)
          to label %invoke.cont31 unwind label %lpad

invoke.cont31:                                    ; preds = %if.then24
  invoke void @_ZN7Imf_3_211FrameBuffer6insertEPKcRKNS_5SliceE(ptr noundef nonnull align 8 dereferenceable(48) %fb, ptr noundef @.str.3, ptr noundef nonnull align 8 dereferenceable(50) %ref.tmp25)
          to label %invoke.cont32 unwind label %lpad

invoke.cont32:                                    ; preds = %invoke.cont31
  br label %if.end33

if.end33:                                         ; preds = %invoke.cont32, %if.end22
  %_outputFile = getelementptr inbounds %"class.Imf_3_2::RgbaOutputFile::ToYca", ptr %this1, i32 0, i32 1
  %15 = load ptr, ptr %_outputFile, align 8
  invoke void @_ZN7Imf_3_210OutputFile14setFrameBufferERKNS_11FrameBufferE(ptr noundef nonnull align 8 dereferenceable(16) %15, ptr noundef nonnull align 8 dereferenceable(48) %fb)
          to label %invoke.cont34 unwind label %lpad

invoke.cont34:                                    ; preds = %if.end33
  call void @_ZN7Imf_3_211FrameBufferD2Ev(ptr noundef nonnull align 8 dereferenceable(48) %fb) #3
  br label %if.end35

if.end35:                                         ; preds = %invoke.cont34, %entry
  %16 = load ptr, ptr %base.addr, align 8
  %_fbBase36 = getelementptr inbounds %"class.Imf_3_2::RgbaOutputFile::ToYca", ptr %this1, i32 0, i32 15
  store ptr %16, ptr %_fbBase36, align 8
  %17 = load i64, ptr %xStride.addr, align 8
  %_fbXStride = getelementptr inbounds %"class.Imf_3_2::RgbaOutputFile::ToYca", ptr %this1, i32 0, i32 16
  store i64 %17, ptr %_fbXStride, align 8
  %18 = load i64, ptr %yStride.addr, align 8
  %_fbYStride = getelementptr inbounds %"class.Imf_3_2::RgbaOutputFile::ToYca", ptr %this1, i32 0, i32 17
  store i64 %18, ptr %_fbYStride, align 8
  ret void

eh.resume:                                        ; preds = %lpad
  %exn = load ptr, ptr %exn.slot, align 8
  %sel = load i32, ptr %ehselector.slot, align 4
  %lpad.val = insertvalue { ptr, i32 } poison, ptr %exn, 0
  %lpad.val37 = insertvalue { ptr, i32 } %lpad.val, i32 %sel, 1
  resume { ptr, i32 } %lpad.val37
}