; Function Attrs: mustprogress uwtable
define hidden void @_ZN7Imf_3_214RgbaOutputFile5ToYca14setFrameBufferEPKNS_4RgbaEmm(ptr nocapture noundef nonnull align 8 dereferenceable(352) %this, ptr noundef %base, i64 noundef %xStride, i64 noundef %yStride) local_unnamed_addr #3 align 2 personality ptr @__gxx_personality_v0 {
entry:
  %fb = alloca %"class.Imf_3_2::FrameBuffer", align 8
  %ref.tmp = alloca %"struct.Imf_3_2::Slice", align 8
  %ref.tmp6 = alloca %"struct.Imf_3_2::Slice", align 8
  %ref.tmp14 = alloca %"struct.Imf_3_2::Slice", align 8
  %ref.tmp25 = alloca %"struct.Imf_3_2::Slice", align 8
  %_fbBase = getelementptr inbounds i8, ptr %this, i64 320
  %0 = load ptr, ptr %_fbBase, align 8
  %cmp = icmp eq ptr %0, null
  br i1 %cmp, label %if.then, label %if.end35

if.then:                                          ; preds = %entry
  %1 = getelementptr inbounds i8, ptr %fb, i64 8
  store i32 0, ptr %1, align 8
  %_M_parent.i.i.i.i.i.i = getelementptr inbounds i8, ptr %fb, i64 16
  store ptr null, ptr %_M_parent.i.i.i.i.i.i, align 8
  %_M_left.i.i.i.i.i.i = getelementptr inbounds i8, ptr %fb, i64 24
  store ptr %1, ptr %_M_left.i.i.i.i.i.i, align 8
  %_M_right.i.i.i.i.i.i = getelementptr inbounds i8, ptr %fb, i64 32
  store ptr %1, ptr %_M_right.i.i.i.i.i.i, align 8
  %_M_node_count.i.i.i.i.i.i = getelementptr inbounds i8, ptr %fb, i64 40
  store i64 0, ptr %_M_node_count.i.i.i.i.i.i, align 8
  %_writeY = getelementptr inbounds i8, ptr %this, i64 48
  %2 = load i8, ptr %_writeY, align 8
  %3 = and i8 %2, 1
  %tobool.not = icmp eq i8 %3, 0
  br i1 %tobool.not, label %if.end, label %if.then2

if.then2:                                         ; preds = %if.then
  %_tmpBuf = getelementptr inbounds i8, ptr %this, i64 312
  %4 = load ptr, ptr %_tmpBuf, align 8
  %_xMin = getelementptr inbounds i8, ptr %this, i64 52
  %5 = load i32, ptr %_xMin, align 4
  %sub = sub nsw i32 0, %5
  %idxprom = sext i32 %sub to i64
  %g = getelementptr inbounds %"struct.Imf_3_2::Rgba", ptr %4, i64 %idxprom, i32 1
  invoke void @_ZN7Imf_3_25SliceC1ENS_9PixelTypeEPcmmiidbb(ptr noundef nonnull align 8 dereferenceable(50) %ref.tmp, i32 noundef 1, ptr noundef nonnull %g, i64 noundef 8, i64 noundef 0, i32 noundef 1, i32 noundef 1, double noundef 0.000000e+00, i1 noundef zeroext false, i1 noundef zeroext false)
          to label %invoke.cont unwind label %lpad

invoke.cont:                                      ; preds = %if.then2
  invoke void @_ZN7Imf_3_211FrameBuffer6insertEPKcRKNS_5SliceE(ptr noundef nonnull align 8 dereferenceable(48) %fb, ptr noundef nonnull @.str, ptr noundef nonnull align 8 dereferenceable(50) %ref.tmp)
          to label %if.end unwind label %lpad

lpad:                                             ; preds = %if.end33, %invoke.cont31, %if.then24, %invoke.cont20, %invoke.cont13, %invoke.cont12, %if.then5, %invoke.cont, %if.then2
  %6 = landingpad { ptr, i32 }
          cleanup
  call void @_ZN7Imf_3_211FrameBufferD2Ev(ptr noundef nonnull align 8 dereferenceable(48) %fb) #25
  resume { ptr, i32 } %6

if.end:                                           ; preds = %invoke.cont, %if.then
  %_writeC = getelementptr inbounds i8, ptr %this, i64 49
  %7 = load i8, ptr %_writeC, align 1
  %8 = and i8 %7, 1
  %tobool4.not = icmp eq i8 %8, 0
  br i1 %tobool4.not, label %if.end22, label %if.then5

if.then5:                                         ; preds = %if.end
  %_tmpBuf7 = getelementptr inbounds i8, ptr %this, i64 312
  %9 = load ptr, ptr %_tmpBuf7, align 8
  %_xMin8 = getelementptr inbounds i8, ptr %this, i64 52
  %10 = load i32, ptr %_xMin8, align 4
  %sub9 = sub nsw i32 0, %10
  %idxprom10 = sext i32 %sub9 to i64
  %arrayidx11 = getelementptr inbounds %"struct.Imf_3_2::Rgba", ptr %9, i64 %idxprom10
  invoke void @_ZN7Imf_3_25SliceC1ENS_9PixelTypeEPcmmiidbb(ptr noundef nonnull align 8 dereferenceable(50) %ref.tmp6, i32 noundef 1, ptr noundef %arrayidx11, i64 noundef 16, i64 noundef 0, i32 noundef 2, i32 noundef 2, double noundef 0.000000e+00, i1 noundef zeroext false, i1 noundef zeroext false)
          to label %invoke.cont12 unwind label %lpad

invoke.cont12:                                    ; preds = %if.then5
  invoke void @_ZN7Imf_3_211FrameBuffer6insertEPKcRKNS_5SliceE(ptr noundef nonnull align 8 dereferenceable(48) %fb, ptr noundef nonnull @.str.1, ptr noundef nonnull align 8 dereferenceable(50) %ref.tmp6)
          to label %invoke.cont13 unwind label %lpad

invoke.cont13:                                    ; preds = %invoke.cont12
  %11 = load ptr, ptr %_tmpBuf7, align 8
  %12 = load i32, ptr %_xMin8, align 4
  %sub17 = sub nsw i32 0, %12
  %idxprom18 = sext i32 %sub17 to i64
  %b = getelementptr inbounds %"struct.Imf_3_2::Rgba", ptr %11, i64 %idxprom18, i32 2
  invoke void @_ZN7Imf_3_25SliceC1ENS_9PixelTypeEPcmmiidbb(ptr noundef nonnull align 8 dereferenceable(50) %ref.tmp14, i32 noundef 1, ptr noundef nonnull %b, i64 noundef 16, i64 noundef 0, i32 noundef 2, i32 noundef 2, double noundef 0.000000e+00, i1 noundef zeroext false, i1 noundef zeroext false)
          to label %invoke.cont20 unwind label %lpad

invoke.cont20:                                    ; preds = %invoke.cont13
  invoke void @_ZN7Imf_3_211FrameBuffer6insertEPKcRKNS_5SliceE(ptr noundef nonnull align 8 dereferenceable(48) %fb, ptr noundef nonnull @.str.2, ptr noundef nonnull align 8 dereferenceable(50) %ref.tmp14)
          to label %if.end22 unwind label %lpad

if.end22:                                         ; preds = %invoke.cont20, %if.end
  %_writeA = getelementptr inbounds i8, ptr %this, i64 50
  %13 = load i8, ptr %_writeA, align 2
  %14 = and i8 %13, 1
  %tobool23.not = icmp eq i8 %14, 0
  br i1 %tobool23.not, label %if.end33, label %if.then24

if.then24:                                        ; preds = %if.end22
  %_tmpBuf26 = getelementptr inbounds i8, ptr %this, i64 312
  %15 = load ptr, ptr %_tmpBuf26, align 8
  %_xMin27 = getelementptr inbounds i8, ptr %this, i64 52
  %16 = load i32, ptr %_xMin27, align 4
  %sub28 = sub nsw i32 0, %16
  %idxprom29 = sext i32 %sub28 to i64
  %a = getelementptr inbounds %"struct.Imf_3_2::Rgba", ptr %15, i64 %idxprom29, i32 3
  invoke void @_ZN7Imf_3_25SliceC1ENS_9PixelTypeEPcmmiidbb(ptr noundef nonnull align 8 dereferenceable(50) %ref.tmp25, i32 noundef 1, ptr noundef nonnull %a, i64 noundef 8, i64 noundef 0, i32 noundef 1, i32 noundef 1, double noundef 0.000000e+00, i1 noundef zeroext false, i1 noundef zeroext false)
          to label %invoke.cont31 unwind label %lpad

invoke.cont31:                                    ; preds = %if.then24
  invoke void @_ZN7Imf_3_211FrameBuffer6insertEPKcRKNS_5SliceE(ptr noundef nonnull align 8 dereferenceable(48) %fb, ptr noundef nonnull @.str.3, ptr noundef nonnull align 8 dereferenceable(50) %ref.tmp25)
          to label %if.end33 unwind label %lpad

if.end33:                                         ; preds = %invoke.cont31, %if.end22
  %_outputFile = getelementptr inbounds i8, ptr %this, i64 40
  %17 = load ptr, ptr %_outputFile, align 8
  invoke void @_ZN7Imf_3_210OutputFile14setFrameBufferERKNS_11FrameBufferE(ptr noundef nonnull align 8 dereferenceable(16) %17, ptr noundef nonnull align 8 dereferenceable(48) %fb)
          to label %invoke.cont34 unwind label %lpad

invoke.cont34:                                    ; preds = %if.end33
  %18 = load ptr, ptr %_M_parent.i.i.i.i.i.i, align 8
  invoke void @_ZNSt8_Rb_treeIN7Imf_3_24NameESt4pairIKS1_NS0_5SliceEESt10_Select1stIS5_ESt4lessIS1_ESaIS5_EE8_M_eraseEPSt13_Rb_tree_nodeIS5_E(ptr noundef nonnull align 8 dereferenceable(48) %fb, ptr noundef %18)
          to label %if.end35 unwind label %terminate.lpad.i.i.i

terminate.lpad.i.i.i:                             ; preds = %invoke.cont34
  %19 = landingpad { ptr, i32 }
          catch ptr null
  %20 = extractvalue { ptr, i32 } %19, 0
  call void @__clang_call_terminate(ptr %20) #26
  unreachable

if.end35:                                         ; preds = %invoke.cont34, %entry
  store ptr %base, ptr %_fbBase, align 8
  %_fbXStride = getelementptr inbounds i8, ptr %this, i64 328
  store i64 %xStride, ptr %_fbXStride, align 8
  %_fbYStride = getelementptr inbounds i8, ptr %this, i64 336
  store i64 %yStride, ptr %_fbYStride, align 8
  ret void
}